                              1 
                              2 ;;; gcc for m6809 : Feb 15 2016 21:40:10
                              3 ;;; 4.3.6 (gcc6809)
                              4 ;;; ABI version 1
                              5 ;;; -mint8
                              6 	.module	sprites.c
                              7 	.globl _grid_scale
                              8 	.area .text
   0000                       9 _grid_scale:
   0000 6E                   10 	.byte	110
                             11 	.globl _draw_sprite
   0001                      12 _draw_sprite:
   0001 34 20         [ 6]   13 	pshs	y
   0003 32 E8 EE      [ 5]   14 	leas	-18,s
   0006 AF 65         [ 6]   15 	stx	5,s
                             16 	; ldx	5,s	; optimization 5
   0008 E6 01         [ 5]   17 	ldb	1,x
   000A E7 E4         [ 4]   18 	stb	,s
   000C E6 F8 05      [ 8]   19 	ldb	[5,s]
   000F E7 61         [ 5]   20 	stb	1,s
   0011 E6 E4         [ 4]   21 	ldb	,s
   0013 34 04         [ 6]   22 	pshs	b
   0015 E6 62         [ 5]   23 	ldb	2,s
   0017 BD 00 A7      [ 8]   24 	jsr	_position_beam
   001A 32 61         [ 5]   25 	leas	1,s
   001C AE 65         [ 6]   26 	ldx	5,s
   001E AE 03         [ 6]   27 	ldx	3,x
   0020 E6 84         [ 4]   28 	ldb	,x
   0022 E7 62         [ 5]   29 	stb	2,s
                             30 	; tst	2,s	; optimization 3
   0024 27 08         [ 3]   31 	beq	L3
   0026 E6 62         [ 5]   32 	ldb	2,s
   0028 C1 01         [ 2]   33 	cmpb	#1	;cmpqi:
   002A 27 1C         [ 3]   34 	beq	L4
   002C 20 46         [ 3]   35 	bra	L7
   002E                      36 L3:
   002E AE 65         [ 6]   37 	ldx	5,s
   0030 AE 03         [ 6]   38 	ldx	3,x
   0032 10 AE 02      [ 7]   39 	ldy	2,x
   0035 AE 65         [ 6]   40 	ldx	5,s
   0037 E6 02         [ 5]   41 	ldb	2,x
   0039 E7 69         [ 5]   42 	stb	9,s
   003B 10 AF 67      [ 7]   43 	sty	7,s
   003E AE 67         [ 6]   44 	ldx	7,s
   0040 E6 69         [ 5]   45 	ldb	9,s
   0042 BD 00 00      [ 8]   46 	jsr	___Draw_VLp_b
   0045 7E 00 A2      [ 4]   47 	jmp	L6
   0048                      48 L4:
   0048 AE 65         [ 6]   49 	ldx	5,s
   004A AE 03         [ 6]   50 	ldx	3,x
   004C 10 AE 02      [ 7]   51 	ldy	2,x
   004F AE 65         [ 6]   52 	ldx	5,s
   0051 E6 02         [ 5]   53 	ldb	2,x
   0053 E7 63         [ 5]   54 	stb	3,s
   0055 AE 65         [ 6]   55 	ldx	5,s
   0057 AE 03         [ 6]   56 	ldx	3,x
   0059 E6 01         [ 5]   57 	ldb	1,x
   005B 5A            [ 2]   58 	decb
   005C E7 6D         [ 5]   59 	stb	13,s
   005E E6 63         [ 5]   60 	ldb	3,s
   0060 E7 6C         [ 5]   61 	stb	12,s
   0062 10 AF 6A      [ 7]   62 	sty	10,s
   0065 E6 6D         [ 5]   63 	ldb	13,s
   0067 E7 E2         [ 6]   64 	stb	,-s
   0069 AE 6B         [ 6]   65 	ldx	11,s
   006B E6 6D         [ 5]   66 	ldb	13,s
   006D BD 00 00      [ 8]   67 	jsr	__Draw_VL_ab
   0070 32 61         [ 5]   68 	leas	1,s
   0072 20 2E         [ 3]   69 	bra	L6
   0074                      70 L7:
   0074 AE 65         [ 6]   71 	ldx	5,s
   0076 AE 03         [ 6]   72 	ldx	3,x
   0078 10 AE 02      [ 7]   73 	ldy	2,x
   007B AE 65         [ 6]   74 	ldx	5,s
   007D E6 02         [ 5]   75 	ldb	2,x
   007F E7 64         [ 5]   76 	stb	4,s
   0081 AE 65         [ 6]   77 	ldx	5,s
   0083 AE 03         [ 6]   78 	ldx	3,x
   0085 E6 01         [ 5]   79 	ldb	1,x
   0087 5A            [ 2]   80 	decb
   0088 E7 E8 11      [ 5]   81 	stb	17,s
   008B E6 64         [ 5]   82 	ldb	4,s
   008D E7 E8 10      [ 5]   83 	stb	16,s
   0090 10 AF 6E      [ 7]   84 	sty	14,s
   0093 E6 E8 11      [ 5]   85 	ldb	17,s
   0096 E7 E2         [ 6]   86 	stb	,-s
   0098 AE 6F         [ 6]   87 	ldx	15,s
   009A E6 E8 11      [ 5]   88 	ldb	17,s
   009D BD 00 00      [ 8]   89 	jsr	__Mov_Draw_VL_ab
   00A0 32 61         [ 5]   90 	leas	1,s
   00A2                      91 L6:
   00A2 32 E8 12      [ 5]   92 	leas	18,s
   00A5 35 A0         [ 7]   93 	puls	y,pc
   00A7                      94 _position_beam:
   00A7 32 7F         [ 5]   95 	leas	-1,s
   00A9 E7 E4         [ 4]   96 	stb	,s
   00AB BD 00 C1      [ 8]   97 	jsr	_reset_beam
   00AE F6 00 00      [ 5]   98 	ldb	_grid_scale
   00B1 34 04         [ 6]   99 	pshs	b
   00B3 E6 64         [ 5]  100 	ldb	4,s
   00B5 E7 E2         [ 6]  101 	stb	,-s
   00B7 E6 62         [ 5]  102 	ldb	2,s
   00B9 BD 00 C5      [ 8]  103 	jsr	_move_beam
   00BC 32 62         [ 5]  104 	leas	2,s
   00BE 32 61         [ 5]  105 	leas	1,s
   00C0 39            [ 5]  106 	rts
   00C1                     107 _reset_beam:
   00C1 BD 00 00      [ 8]  108 	jsr	___Reset0Ref
   00C4 39            [ 5]  109 	rts
   00C5                     110 _move_beam:
   00C5 32 7D         [ 5]  111 	leas	-3,s
   00C7 E7 E4         [ 4]  112 	stb	,s
   00C9 E6 66         [ 5]  113 	ldb	6,s
   00CB F7 00 00      [ 5]  114 	stb	_VIA_t1_cnt_lo
   00CE E6 E4         [ 4]  115 	ldb	,s
   00D0 E7 62         [ 5]  116 	stb	2,s
   00D2 E6 65         [ 5]  117 	ldb	5,s
   00D4 E7 61         [ 5]  118 	stb	1,s
   00D6 E6 62         [ 5]  119 	ldb	2,s
   00D8 E7 E2         [ 6]  120 	stb	,-s
   00DA E6 62         [ 5]  121 	ldb	2,s
   00DC BD 00 00      [ 8]  122 	jsr	__Moveto_d
   00DF 32 61         [ 5]  123 	leas	1,s
   00E1 32 63         [ 5]  124 	leas	3,s
   00E3 39            [ 5]  125 	rts
ASxxxx Assembler V05.00  (Motorola 6809), page 1.
Hexidecimal [16-Bits]

Symbol Table

    .__.$$$.       =   2710 L   |     .__.ABS.       =   0000 G
    .__.CPU.       =   0000 L   |     .__.H$L.       =   0001 L
  2 L3                 002E R   |   2 L4                 0048 R
  2 L6                 00A2 R   |   2 L7                 0074 R
    _VIA_t1_cnt_lo     **** GX  |     __Draw_VL_ab       **** GX
    __Mov_Draw_VL_     **** GX  |     __Moveto_d         **** GX
    ___Draw_VLp_b      **** GX  |     ___Reset0Ref       **** GX
  2 _draw_sprite       0001 GR  |   2 _grid_scale        0000 GR
  2 _move_beam         00C5 R   |   2 _position_beam     00A7 R
  2 _reset_beam        00C1 R

ASxxxx Assembler V05.00  (Motorola 6809), page 2.
Hexidecimal [16-Bits]

Area Table

[_CSEG]
   0 _CODE            size    0   flags C080
   2 .text            size   E4   flags  100
[_DSEG]
   1 _DATA            size    0   flags C0C0

